; Function Attrs: mustprogress nofree norecurse nosync nounwind willreturn memory(readwrite, inaccessiblemem: write) uwtable
define void @_ZN3zmq6dist_t9activatedEPNS_6pipe_tE(ptr noundef nonnull align 8 captures(none) dereferenceable(49) %0, ptr noundef readonly %1) local_unnamed_addr #8 align 2 {
  %3 = getelementptr inbounds nuw i8, ptr %0, i64 40
  %4 = load i64, ptr %3, align 8, !tbaa !31
  %5 = getelementptr inbounds nuw i8, ptr %0, i64 8
  %6 = load ptr, ptr %5, align 8, !tbaa !24
  %7 = load ptr, ptr %0, align 8, !tbaa !12
  %8 = ptrtoint ptr %6 to i64
  %9 = ptrtoint ptr %7 to i64
  %10 = sub i64 %8, %9
  %11 = ashr exact i64 %10, 3
  %12 = icmp ult i64 %4, %11
  br i1 %12, label %13, label %29

13:                                               ; preds = %2
  %14 = icmp ne ptr %1, null
  tail call void @llvm.assume(i1 %14)
  %15 = getelementptr inbounds nuw i8, ptr %1, i64 48
  %16 = load i32, ptr %15, align 8, !tbaa !25
  %17 = sext i32 %16 to i64
  %18 = getelementptr inbounds nuw ptr, ptr %7, i64 %17
  %19 = load ptr, ptr %18, align 8, !tbaa !29
  %.not.i = icmp eq ptr %19, null
  br i1 %.not.i, label %23, label %20

20:                                               ; preds = %13
  %21 = trunc i64 %4 to i32
  %22 = getelementptr inbounds nuw i8, ptr %19, i64 48
  store i32 %21, ptr %22, align 8, !tbaa !25
  br label %23

23:                                               ; preds = %20, %13
  %24 = getelementptr inbounds nuw ptr, ptr %7, i64 %4
  %25 = load ptr, ptr %24, align 8, !tbaa !29
  %.not8.i = icmp eq ptr %25, null
  br i1 %.not8.i, label %_ZN3zmq7array_tINS_6pipe_tELi2EE4swapEmm.exit, label %26

26:                                               ; preds = %23
  %27 = getelementptr inbounds nuw i8, ptr %25, i64 48
  store i32 %16, ptr %27, align 8, !tbaa !25
  br label %_ZN3zmq7array_tINS_6pipe_tELi2EE4swapEmm.exit

_ZN3zmq7array_tINS_6pipe_tELi2EE4swapEmm.exit:    ; preds = %23, %26
  store ptr %25, ptr %18, align 8, !tbaa !29
  store ptr %19, ptr %24, align 8, !tbaa !29
  %28 = add nuw i64 %4, 1
  store i64 %28, ptr %3, align 8, !tbaa !31
  br label %29

29:                                               ; preds = %_ZN3zmq7array_tINS_6pipe_tELi2EE4swapEmm.exit, %2
  %30 = phi i64 [ %28, %_ZN3zmq7array_tINS_6pipe_tELi2EE4swapEmm.exit ], [ %4, %2 ]
  %31 = getelementptr inbounds nuw i8, ptr %0, i64 48
  %32 = load i8, ptr %31, align 8, !tbaa !14, !range !22, !noundef !23
  %33 = trunc nuw i8 %32 to i1
  br i1 %33, label %52, label %34

34:                                               ; preds = %29
  %35 = getelementptr inbounds nuw i8, ptr %0, i64 32
  %36 = load i64, ptr %35, align 8, !tbaa !32
  %37 = icmp ult i64 %36, %11
  br i1 %37, label %38, label %52

38:                                               ; preds = %34
  %39 = add i64 %30, -1
  %40 = getelementptr inbounds nuw ptr, ptr %7, i64 %39
  %41 = load ptr, ptr %40, align 8, !tbaa !29
  %.not.i2 = icmp eq ptr %41, null
  br i1 %.not.i2, label %45, label %42

42:                                               ; preds = %38
  %43 = trunc i64 %36 to i32
  %44 = getelementptr inbounds nuw i8, ptr %41, i64 48
  store i32 %43, ptr %44, align 8, !tbaa !25
  br label %45

45:                                               ; preds = %42, %38
  %46 = getelementptr inbounds nuw ptr, ptr %7, i64 %36
  %47 = load ptr, ptr %46, align 8, !tbaa !29
  %.not8.i3 = icmp eq ptr %47, null
  br i1 %.not8.i3, label %_ZN3zmq7array_tINS_6pipe_tELi2EE4swapEmm.exit4, label %48

48:                                               ; preds = %45
  %49 = trunc i64 %39 to i32
  %50 = getelementptr inbounds nuw i8, ptr %47, i64 48
  store i32 %49, ptr %50, align 8, !tbaa !25
  br label %_ZN3zmq7array_tINS_6pipe_tELi2EE4swapEmm.exit4

_ZN3zmq7array_tINS_6pipe_tELi2EE4swapEmm.exit4:   ; preds = %45, %48
  store ptr %47, ptr %40, align 8, !tbaa !29
  store ptr %41, ptr %46, align 8, !tbaa !29
  %51 = add nuw i64 %36, 1
  store i64 %51, ptr %35, align 8, !tbaa !32
  br label %52

52:                                               ; preds = %_ZN3zmq7array_tINS_6pipe_tELi2EE4swapEmm.exit4, %34, %29
  ret void
}